Certificate:
    Data:
        Version: 3 (0x2)
        Serial Number:
            76:c0:cc:2f:5f:ef:00:69:14:a2:a8:4f:20:a7:32:8d
    Signature Algorithm: sha256WithRSAEncryption
        Issuer: C=GB, O=Cabinet Office, OU=GDS, CN=IDAP Relying Party Test CA
        Validity
            Not Before: Aug 14 00:00:00 2018 GMT
            Not After : Aug 14 23:59:59 2019 GMT
        Subject: C=GB, ST=London, L=London, O=Cabinet Office, OU=GDS, CN=Test RP Encryption (20180814160917)
        Subject Public Key Info:
            Public Key Algorithm: rsaEncryption
                Public-Key: (2048 bit)
                Modulus:
                    00:aa:84:99:41:f5:af:58:7c:2b:f1:90:40:79:d3:
                    71:48:f2:28:75:3d:ec:bd:83:a7:ec:be:10:c1:0b:
                    8b:28:a2:60:52:8d:cb:1f:da:1d:20:68:25:a0:c4:
                    b6:39:fe:b9:f9:b3:39:ed:3a:f7:c2:e1:44:ef:68:
                    63:c1:2a:15:92:fb:cb:be:9e:ed:fa:90:71:ed:f7:
                    bc:5e:53:0c:25:d7:30:f1:20:2b:15:ed:3a:99:68:
                    5a:15:8f:d3:27:64:d5:94:94:a6:bd:6c:96:a1:d1:
                    e6:f2:2b:9d:65:f2:0b:0f:cb:62:48:ed:bb:17:77:
                    50:2f:07:db:60:1c:78:b5:48:da:b5:50:7b:d5:11:
                    bb:56:39:68:5e:60:87:a1:39:19:bc:60:45:71:a3:
                    35:d7:3f:c0:8e:27:43:a7:45:89:fc:88:74:09:e6:
                    0c:1a:10:d7:34:9f:82:d3:b6:75:a9:a8:3c:51:b9:
                    01:94:36:df:64:b8:f1:6d:e9:57:88:7f:93:6f:45:
                    1d:6e:55:72:02:e6:f3:34:30:fb:64:f8:21:46:15:
                    9b:81:54:b9:5b:62:ce:5f:4e:91:91:ac:2f:3d:23:
                    40:6b:cb:29:c5:f7:77:dc:b9:2f:e3:ec:12:ee:95:
                    1c:96:04:b7:a7:5f:6c:67:74:07:00:2b:f4:34:b6:
                    d0:2d
                Exponent: 65537 (0x10001)
        X509v3 extensions:
            X509v3 Basic Constraints: critical
                CA:FALSE
            X509v3 CRL Distribution Points: 

                Full Name:
                  URI:http://onsitecrl.trustwise.com/CabinetOfficeIDAPRelyingPartyTestCA/LatestCRL.crl

            X509v3 Key Usage: critical
                Key Encipherment
            X509v3 Subject Key Identifier: 
                89:68:9A:34:AE:12:09:E8:CD:B4:9D:7C:58:2B:7C:70:58:92:F9:53
            X509v3 Authority Key Identifier: 
                keyid:DD:E4:F5:5D:1A:0A:0F:3A:D1:48:22:1E:4E:C0:F8:6E:36:F6:C5:25

            Authority Information Access: 
                OCSP - URI:http://std-ocsp.trustwise.com

    Signature Algorithm: sha256WithRSAEncryption
         8e:8c:be:ef:b3:68:45:af:4d:6a:92:92:d1:de:54:26:ef:e8:
         f2:e9:a2:31:fd:94:08:29:99:c4:bb:db:0c:39:00:fa:6e:83:
         00:69:be:9f:1e:59:18:c4:a1:41:f7:99:a0:89:d0:9c:8f:7c:
         cb:76:ef:f7:90:b9:4d:79:ae:fb:fb:62:ad:3c:0d:87:3b:68:
         e9:c9:c0:ad:84:d9:f5:94:f1:ec:5f:3a:39:2b:42:bb:92:89:
         59:9a:5f:6f:05:de:bf:86:45:49:0a:7f:d8:5b:37:52:f2:f9:
         03:60:1e:89:fd:27:57:ef:32:97:fc:7e:16:82:20:f8:f4:41:
         8e:ae:13:46:ea:07:4f:af:02:d1:fd:5d:9c:ed:72:79:05:70:
         7d:ce:12:2b:d3:ab:5b:56:e0:71:23:f2:07:fe:99:92:c9:4b:
         1f:e7:52:3e:ef:a7:2f:a9:81:5f:09:18:a1:6c:eb:14:11:c8:
         68:62:0e:a9:be:eb:5e:c0:45:0b:09:7f:0b:2a:8e:8a:30:06:
         5d:8d:43:73:d9:b0:9b:7b:e0:53:e0:a3:e0:0f:8e:d0:a9:5f:
         e9:4b:32:81:39:60:d4:17:2b:5c:57:1e:44:b5:e6:ce:d4:60:
         1d:54:c7:3b:05:b5:a1:51:71:4f:c1:ab:31:cb:78:34:e3:08:
         89:0c:e6:74
-----BEGIN CERTIFICATE-----
MIIEaDCCA1CgAwIBAgIQdsDML1/vAGkUoqhPIKcyjTANBgkqhkiG9w0BAQsFADBZ
MQswCQYDVQQGEwJHQjEXMBUGA1UEChMOQ2FiaW5ldCBPZmZpY2UxDDAKBgNVBAsT
A0dEUzEjMCEGA1UEAxMaSURBUCBSZWx5aW5nIFBhcnR5IFRlc3QgQ0EwHhcNMTgw
ODE0MDAwMDAwWhcNMTkwODE0MjM1OTU5WjCBhDELMAkGA1UEBhMCR0IxDzANBgNV
BAgTBkxvbmRvbjEPMA0GA1UEBxMGTG9uZG9uMRcwFQYDVQQKFA5DYWJpbmV0IE9m
ZmljZTEMMAoGA1UECxQDR0RTMSwwKgYDVQQDEyNUZXN0IFJQIEVuY3J5cHRpb24g
KDIwMTgwODE0MTYwOTE3KTCCASIwDQYJKoZIhvcNAQEBBQADggEPADCCAQoCggEB
AKqEmUH1r1h8K/GQQHnTcUjyKHU97L2Dp+y+EMELiyiiYFKNyx/aHSBoJaDEtjn+
ufmzOe0698LhRO9oY8EqFZL7y76e7fqQce33vF5TDCXXMPEgKxXtOploWhWP0ydk
1ZSUpr1slqHR5vIrnWXyCw/LYkjtuxd3UC8H22AceLVI2rVQe9URu1Y5aF5gh6E5
GbxgRXGjNdc/wI4nQ6dFifyIdAnmDBoQ1zSfgtO2damoPFG5AZQ232S48W3pV4h/
k29FHW5VcgLm8zQw+2T4IUYVm4FUuVtizl9OkZGsLz0jQGvLKcX3d9y5L+PsEu6V
HJYEt6dfbGd0BwAr9DS20C0CAwEAAaOB/zCB/DAMBgNVHRMBAf8EAjAAMGEGA1Ud
HwRaMFgwVqBUoFKGUGh0dHA6Ly9vbnNpdGVjcmwudHJ1c3R3aXNlLmNvbS9DYWJp
bmV0T2ZmaWNlSURBUFJlbHlpbmdQYXJ0eVRlc3RDQS9MYXRlc3RDUkwuY3JsMA4G
A1UdDwEB/wQEAwIFIDAdBgNVHQ4EFgQUiWiaNK4SCejNtJ18WCt8cFiS+VMwHwYD
VR0jBBgwFoAU3eT1XRoKDzrRSCIeTsD4bjb2xSUwOQYIKwYBBQUHAQEELTArMCkG
CCsGAQUFBzABhh1odHRwOi8vc3RkLW9jc3AudHJ1c3R3aXNlLmNvbTANBgkqhkiG
9w0BAQsFAAOCAQEAjoy+77NoRa9NapKS0d5UJu/o8umiMf2UCCmZxLvbDDkA+m6D
AGm+nx5ZGMShQfeZoInQnI98y3bv95C5TXmu+/tirTwNhzto6cnArYTZ9ZTx7F86
OStCu5KJWZpfbwXev4ZFSQp/2Fs3UvL5A2Aeif0nV+8yl/x+FoIg+PRBjq4TRuoH
T68C0f1dnO1yeQVwfc4SK9OrW1bgcSPyB/6ZkslLH+dSPu+nL6mBXwkYoWzrFBHI
aGIOqb7rXsBFCwl/CyqOijAGXY1Dc9mwm3vgU+Cj4A+O0Klf6UsygTlg1BcrXFce
RLXmztRgHVTHOwW1oVFxT8GrMct4NOMIiQzmdA==
-----END CERTIFICATE-----
