Certificate:
    Data:
        Version: 3 (0x2)
        Serial Number: 3679846858759035524 (0x33117138ac2b5a84)
    Signature Algorithm: sha1WithRSAEncryption
        Issuer: C=US, O=Apple Inc., OU=Apple Worldwide Developer Relations, CN=Apple Worldwide Developer Relations Certification Authority
        Validity
            Not Before: Sep 22 03:28:30 2012 GMT
            Not After : Sep 22 03:28:30 2013 GMT
        Subject: UID=XB7XNCC9WN, CN=iPhone Developer: Theodore Gutmann (RT82L6YUXU), OU=TZBU24XNES, O=Emma S. Clark Memorial Library, C=US
        Subject Public Key Info:
            Public Key Algorithm: rsaEncryption
                Public-Key: (2048 bit)
                Modulus:
                    00:c3:54:21:f0:80:cf:17:bb:86:5c:10:7b:19:80:
                    c3:c3:54:59:3b:9e:71:71:19:9b:e1:0c:60:82:79:
                    a8:61:f5:f5:28:11:a6:cf:2c:22:a0:a0:75:57:d1:
                    85:72:72:27:d1:bb:23:97:80:d4:c8:c9:d6:f9:dc:
                    0d:fb:16:c8:1a:07:dc:38:55:b2:a2:c5:4f:b4:ba:
                    fa:7a:40:55:fe:7d:5d:8e:74:ca:ac:e0:35:15:1e:
                    f2:66:1c:f1:b3:a3:8d:ae:25:59:44:41:6b:a2:58:
                    a7:75:5d:3b:70:8d:6a:e6:12:a5:04:e8:cd:00:a4:
                    67:de:b6:81:1d:f2:bb:ae:ac:2d:dd:14:8f:6d:77:
                    c5:72:b9:50:b2:a1:45:a6:3e:87:65:59:27:12:d5:
                    35:fc:93:3d:53:ba:67:23:9a:39:4a:bc:90:9e:66:
                    f0:10:fb:ac:f1:fe:a0:7c:e0:9d:d3:25:a8:12:79:
                    5a:8a:ea:b3:bd:5d:bf:7e:0a:d0:54:bc:69:0a:60:
                    96:9b:ae:1e:3b:fb:82:cd:c9:dd:85:ef:be:78:ba:
                    17:d5:1a:4c:d0:e4:09:d8:ed:2c:0c:40:b3:3b:da:
                    f0:1d:45:b1:20:77:a2:43:04:b4:60:a0:4f:26:3f:
                    bb:14:d2:89:8d:70:14:b6:49:df:75:54:44:50:d6:
                    16:03
                Exponent: 65537 (0x10001)
        X509v3 extensions:
            X509v3 Subject Key Identifier: 
                71:59:0B:97:E8:0E:D6:D6:BD:17:E3:6A:15:8E:4F:70:BD:5A:1B:F5
            X509v3 Basic Constraints: critical
                CA:FALSE
            X509v3 Authority Key Identifier: 
                keyid:88:27:17:09:A9:B6:18:60:8B:EC:EB:BA:F6:47:59:C5:52:54:A3:B7

            X509v3 Certificate Policies: 
                Policy: 1.2.840.113635.100.5.1
                  User Notice:
                    Explicit Text: Reliance on this certificate by any party assumes acceptance of the then applicable standard terms and conditions of use, certificate policy and certification practice statements.
                  CPS: http://www.apple.com/appleca/

            X509v3 CRL Distribution Points: 

                Full Name:
                  URI:http://developer.apple.com/certificationauthority/wwdrca.crl

            X509v3 Key Usage: critical
                Digital Signature
            X509v3 Extended Key Usage: critical
                Code Signing
            1.2.840.113635.100.6.1.2: critical
                ..
    Signature Algorithm: sha1WithRSAEncryption
         80:ad:5a:43:e7:e2:77:c3:b9:4e:ae:44:a0:21:7f:f0:ef:06:
         e9:67:27:e9:1f:e5:af:36:7c:36:0a:2f:41:7f:49:5a:7c:e3:
         a1:6f:1c:1f:c8:55:ca:9d:f3:f3:94:8d:c4:0b:2a:56:60:ec:
         fd:06:e8:2d:4a:58:65:a7:6d:cd:61:3f:e8:e1:37:c1:54:4f:
         77:38:e3:35:1f:d9:50:95:d7:97:fc:5f:d6:ea:88:c0:df:e0:
         75:6a:08:f6:75:c0:ac:33:57:a1:ac:ed:91:da:bf:48:a8:8b:
         bd:ec:11:f8:87:b3:14:5f:5d:23:c0:e3:06:0f:ac:c3:42:e5:
         db:0d:d9:1d:5c:54:7d:76:b3:a1:f2:aa:e1:5e:7d:c5:de:5d:
         eb:64:b1:2d:38:15:54:64:15:10:f6:92:be:4c:ed:65:1b:a4:
         88:33:27:b0:62:0e:46:52:c6:2a:05:30:9c:bf:b4:c1:4a:05:
         f0:72:82:46:95:d1:92:2a:68:30:ab:5f:9d:5a:03:b9:16:7c:
         27:70:50:f1:b4:20:9e:98:17:96:f6:f2:18:0d:dd:9b:29:4e:
         40:9e:45:01:11:b5:af:1f:5d:86:57:d3:ce:79:3c:4f:68:1c:
         9f:83:d5:c8:53:62:7b:15:c7:26:ca:cf:5d:06:61:6c:94:e6:
         f5:7c:a1:05
-----BEGIN CERTIFICATE-----
MIIFrjCCBJagAwIBAgIIMxFxOKwrWoQwDQYJKoZIhvcNAQEFBQAwgZYxCzAJBgNV
BAYTAlVTMRMwEQYDVQQKDApBcHBsZSBJbmMuMSwwKgYDVQQLDCNBcHBsZSBXb3Js
ZHdpZGUgRGV2ZWxvcGVyIFJlbGF0aW9uczFEMEIGA1UEAww7QXBwbGUgV29ybGR3
aWRlIERldmVsb3BlciBSZWxhdGlvbnMgQ2VydGlmaWNhdGlvbiBBdXRob3JpdHkw
HhcNMTIwOTIyMDMyODMwWhcNMTMwOTIyMDMyODMwWjCBoTEaMBgGCgmSJomT8ixk
AQEMClhCN1hOQ0M5V04xODA2BgNVBAMML2lQaG9uZSBEZXZlbG9wZXI6IFRoZW9k
b3JlIEd1dG1hbm4gKFJUODJMNllVWFUpMRMwEQYDVQQLDApUWkJVMjRYTkVTMScw
JQYDVQQKDB5FbW1hIFMuIENsYXJrIE1lbW9yaWFsIExpYnJhcnkxCzAJBgNVBAYT
AlVTMIIBIjANBgkqhkiG9w0BAQEFAAOCAQ8AMIIBCgKCAQEAw1Qh8IDPF7uGXBB7
GYDDw1RZO55xcRmb4QxggnmoYfX1KBGmzywioKB1V9GFcnIn0bsjl4DUyMnW+dwN
+xbIGgfcOFWyosVPtLr6ekBV/n1djnTKrOA1FR7yZhzxs6ONriVZREFrolindV07
cI1q5hKlBOjNAKRn3raBHfK7rqwt3RSPbXfFcrlQsqFFpj6HZVknEtU1/JM9U7pn
I5o5SryQnmbwEPus8f6gfOCd0yWoEnlaiuqzvV2/fgrQVLxpCmCWm64eO/uCzcnd
he++eLoX1RpM0OQJ2O0sDECzO9rwHUWxIHeiQwS0YKBPJj+7FNKJjXAUtknfdVRE
UNYWAwIDAQABo4IB8TCCAe0wHQYDVR0OBBYEFHFZC5foDtbWvRfjahWOT3C9Whv1
MAwGA1UdEwEB/wQCMAAwHwYDVR0jBBgwFoAUiCcXCam2GGCL7Ou69kdZxVJUo7cw
ggEPBgNVHSAEggEGMIIBAjCB/wYJKoZIhvdjZAUBMIHxMIHDBggrBgEFBQcCAjCB
tgyBs1JlbGlhbmNlIG9uIHRoaXMgY2VydGlmaWNhdGUgYnkgYW55IHBhcnR5IGFz
c3VtZXMgYWNjZXB0YW5jZSBvZiB0aGUgdGhlbiBhcHBsaWNhYmxlIHN0YW5kYXJk
IHRlcm1zIGFuZCBjb25kaXRpb25zIG9mIHVzZSwgY2VydGlmaWNhdGUgcG9saWN5
IGFuZCBjZXJ0aWZpY2F0aW9uIHByYWN0aWNlIHN0YXRlbWVudHMuMCkGCCsGAQUF
BwIBFh1odHRwOi8vd3d3LmFwcGxlLmNvbS9hcHBsZWNhLzBNBgNVHR8ERjBEMEKg
QKA+hjxodHRwOi8vZGV2ZWxvcGVyLmFwcGxlLmNvbS9jZXJ0aWZpY2F0aW9uYXV0
aG9yaXR5L3d3ZHJjYS5jcmwwDgYDVR0PAQH/BAQDAgeAMBYGA1UdJQEB/wQMMAoG
CCsGAQUFBwMDMBMGCiqGSIb3Y2QGAQIBAf8EAgUAMA0GCSqGSIb3DQEBBQUAA4IB
AQCArVpD5+J3w7lOrkSgIX/w7wbpZyfpH+WvNnw2Ci9Bf0lafOOhbxwfyFXKnfPz
lI3ECypWYOz9BugtSlhlp23NYT/o4TfBVE93OOM1H9lQldeX/F/W6ojA3+B1agj2
dcCsM1ehrO2R2r9IqIu97BH4h7MUX10jwOMGD6zDQuXbDdkdXFR9drOh8qrhXn3F
3l3rZLEtOBVUZBUQ9pK+TO1lG6SIMyewYg5GUsYqBTCcv7TBSgXwcoJGldGSKmgw
q1+dWgO5FnwncFDxtCCemBeW9vIYDd2bKU5AnkUBEbWvH12GV9POeTxPaByfg9XI
U2J7Fccmys9dBmFslOb1fKEF
-----END CERTIFICATE-----
