Certificate:
    Data:
        Version: 3 (0x2)
        Serial Number: 6979239444909947126 (0x60db3d4c2c4078f6)
    Signature Algorithm: sha256WithRSAEncryption
        Issuer: C=US, O=Apple Inc., OU=Apple Worldwide Developer Relations, CN=Apple Worldwide Developer Relations Certification Authority
        Validity
            Not Before: Mar  5 13:52:53 2017 GMT
            Not After : Apr  4 13:52:53 2018 GMT
        Subject: UID=org.hhhlibrary.mobile.ios, CN=Apple Push Services: org.hhhlibrary.mobile.ios, OU=WMME533ZXG, O=Half Hollow Hills Community Library, C=US
        Subject Public Key Info:
            Public Key Algorithm: rsaEncryption
                Public-Key: (2048 bit)
                Modulus:
                    00:c3:54:21:f0:80:cf:17:bb:86:5c:10:7b:19:80:
                    c3:c3:54:59:3b:9e:71:71:19:9b:e1:0c:60:82:79:
                    a8:61:f5:f5:28:11:a6:cf:2c:22:a0:a0:75:57:d1:
                    85:72:72:27:d1:bb:23:97:80:d4:c8:c9:d6:f9:dc:
                    0d:fb:16:c8:1a:07:dc:38:55:b2:a2:c5:4f:b4:ba:
                    fa:7a:40:55:fe:7d:5d:8e:74:ca:ac:e0:35:15:1e:
                    f2:66:1c:f1:b3:a3:8d:ae:25:59:44:41:6b:a2:58:
                    a7:75:5d:3b:70:8d:6a:e6:12:a5:04:e8:cd:00:a4:
                    67:de:b6:81:1d:f2:bb:ae:ac:2d:dd:14:8f:6d:77:
                    c5:72:b9:50:b2:a1:45:a6:3e:87:65:59:27:12:d5:
                    35:fc:93:3d:53:ba:67:23:9a:39:4a:bc:90:9e:66:
                    f0:10:fb:ac:f1:fe:a0:7c:e0:9d:d3:25:a8:12:79:
                    5a:8a:ea:b3:bd:5d:bf:7e:0a:d0:54:bc:69:0a:60:
                    96:9b:ae:1e:3b:fb:82:cd:c9:dd:85:ef:be:78:ba:
                    17:d5:1a:4c:d0:e4:09:d8:ed:2c:0c:40:b3:3b:da:
                    f0:1d:45:b1:20:77:a2:43:04:b4:60:a0:4f:26:3f:
                    bb:14:d2:89:8d:70:14:b6:49:df:75:54:44:50:d6:
                    16:03
                Exponent: 65537 (0x10001)
        X509v3 extensions:
            X509v3 Subject Key Identifier: 
                71:59:0B:97:E8:0E:D6:D6:BD:17:E3:6A:15:8E:4F:70:BD:5A:1B:F5
            X509v3 Basic Constraints: critical
                CA:FALSE
            X509v3 Authority Key Identifier: 
                keyid:88:27:17:09:A9:B6:18:60:8B:EC:EB:BA:F6:47:59:C5:52:54:A3:B7

            X509v3 Certificate Policies: 
                Policy: 1.2.840.113635.100.5.1
                  User Notice:
                    Explicit Text: Reliance on this certificate by any party assumes acceptance of the then applicable standard terms and conditions of use, certificate policy and certification practice statements.
                  CPS: http://www.apple.com/certificateauthority

            X509v3 CRL Distribution Points: 

                Full Name:
                  URI:http://crl.apple.com/wwdrca.crl

            X509v3 Key Usage: critical
                Digital Signature
            X509v3 Extended Key Usage: 
                TLS Web Client Authentication
            1.2.840.113635.100.6.3.1: 
                ..
            1.2.840.113635.100.6.3.2: 
                ..
            1.2.840.113635.100.6.3.6: 
                0....org.hhhlibrary.mobile.ios0...app..org.hhhlibrary.mobile.ios.voip0...voip.&org.hhhlibrary.mobile.ios.complication0...complication
    Signature Algorithm: sha256WithRSAEncryption
         8b:0c:1a:fe:cb:af:79:6b:88:fc:2a:4b:25:2d:91:a5:1e:f9:
         dc:99:6f:0d:6f:9b:c4:21:10:ed:95:9b:b7:f1:fc:e3:2d:5a:
         6a:1d:32:0d:a9:4b:d8:b4:63:82:86:7d:86:6d:ec:0d:0b:07:
         c8:28:9b:1d:aa:00:97:ee:cf:88:28:de:4f:86:c8:0f:c3:d9:
         af:89:ad:fd:2b:9d:6b:40:42:31:e4:65:45:94:d8:08:b8:fc:
         fb:08:e8:99:0a:82:42:bf:b2:49:7c:e0:13:25:43:d5:d3:73:
         69:c4:a2:33:3a:f3:2c:4b:a2:58:8f:18:40:ca:8f:b9:75:97:
         cb:12:88:f8:0b:98:5b:2a:5c:c0:37:99:c1:4a:74:97:c2:c9:
         cc:16:06:43:48:ff:63:69:fd:d0:08:13:63:d2:13:e8:21:04:
         ab:1a:b5:61:ac:30:17:2b:76:8b:b0:d1:2c:56:06:7f:35:08:
         b2:cc:78:32:6a:cb:72:cd:d3:79:af:ae:86:d6:fe:1f:88:b2:
         8f:7c:7b:d7:06:e9:f7:4f:d9:1e:cb:ef:9f:1c:f5:8d:14:d5:
         41:ef:1c:1c:c6:02:22:a1:39:3c:ef:e5:a9:5b:b0:c2:4e:bc:
         3b:cd:7f:24:01:e5:b8:ce:e0:d7:6c:c1:a3:b7:d3:5a:56:e4:
         87:bc:10:f7
-----BEGIN CERTIFICATE-----
MIIGVDCCBTygAwIBAgIIYNs9TCxAePYwDQYJKoZIhvcNAQELBQAwgZYxCzAJBgNV
BAYTAlVTMRMwEQYDVQQKDApBcHBsZSBJbmMuMSwwKgYDVQQLDCNBcHBsZSBXb3Js
ZHdpZGUgRGV2ZWxvcGVyIFJlbGF0aW9uczFEMEIGA1UEAww7QXBwbGUgV29ybGR3
aWRlIERldmVsb3BlciBSZWxhdGlvbnMgQ2VydGlmaWNhdGlvbiBBdXRob3JpdHkw
HhcNMTcwMzA1MTM1MjUzWhcNMTgwNDA0MTM1MjUzWjCBtDEpMCcGCgmSJomT8ixk
AQEMGW9yZy5oaGhsaWJyYXJ5Lm1vYmlsZS5pb3MxNzA1BgNVBAMMLkFwcGxlIFB1
c2ggU2VydmljZXM6IG9yZy5oaGhsaWJyYXJ5Lm1vYmlsZS5pb3MxEzARBgNVBAsM
CldNTUU1MzNaWEcxLDAqBgNVBAoMI0hhbGYgSG9sbG93IEhpbGxzIENvbW11bml0
eSBMaWJyYXJ5MQswCQYDVQQGEwJVUzCCASIwDQYJKoZIhvcNAQEBBQADggEPADCC
AQoCggEBAMNUIfCAzxe7hlwQexmAw8NUWTuecXEZm+EMYIJ5qGH19SgRps8sIqCg
dVfRhXJyJ9G7I5eA1MjJ1vncDfsWyBoH3DhVsqLFT7S6+npAVf59XY50yqzgNRUe
8mYc8bOjja4lWURBa6JYp3VdO3CNauYSpQTozQCkZ962gR3yu66sLd0Uj213xXK5
ULKhRaY+h2VZJxLVNfyTPVO6ZyOaOUq8kJ5m8BD7rPH+oHzgndMlqBJ5Worqs71d
v34K0FS8aQpglpuuHjv7gs3J3YXvvni6F9UaTNDkCdjtLAxAszva8B1FsSB3okME
tGCgTyY/uxTSiY1wFLZJ33VURFDWFgMCAwEAAaOCAoQwggKAMB0GA1UdDgQWBBRx
WQuX6A7W1r0X42oVjk9wvVob9TAMBgNVHRMBAf8EAjAAMB8GA1UdIwQYMBaAFIgn
Fwmpthhgi+zruvZHWcVSVKO3MIIBHAYDVR0gBIIBEzCCAQ8wggELBgkqhkiG92Nk
BQEwgf0wgcMGCCsGAQUFBwICMIG2DIGzUmVsaWFuY2Ugb24gdGhpcyBjZXJ0aWZp
Y2F0ZSBieSBhbnkgcGFydHkgYXNzdW1lcyBhY2NlcHRhbmNlIG9mIHRoZSB0aGVu
IGFwcGxpY2FibGUgc3RhbmRhcmQgdGVybXMgYW5kIGNvbmRpdGlvbnMgb2YgdXNl
LCBjZXJ0aWZpY2F0ZSBwb2xpY3kgYW5kIGNlcnRpZmljYXRpb24gcHJhY3RpY2Ug
c3RhdGVtZW50cy4wNQYIKwYBBQUHAgEWKWh0dHA6Ly93d3cuYXBwbGUuY29tL2Nl
cnRpZmljYXRlYXV0aG9yaXR5MDAGA1UdHwQpMCcwJaAjoCGGH2h0dHA6Ly9jcmwu
YXBwbGUuY29tL3d3ZHJjYS5jcmwwDgYDVR0PAQH/BAQDAgeAMBMGA1UdJQQMMAoG
CCsGAQUFBwMCMBAGCiqGSIb3Y2QGAwEEAgUAMBAGCiqGSIb3Y2QGAwIEAgUAMIGU
BgoqhkiG92NkBgMGBIGFMIGCDBlvcmcuaGhobGlicmFyeS5tb2JpbGUuaW9zMAUM
A2FwcAweb3JnLmhoaGxpYnJhcnkubW9iaWxlLmlvcy52b2lwMAYMBHZvaXAMJm9y
Zy5oaGhsaWJyYXJ5Lm1vYmlsZS5pb3MuY29tcGxpY2F0aW9uMA4MDGNvbXBsaWNh
dGlvbjANBgkqhkiG9w0BAQsFAAOCAQEAiwwa/suveWuI/CpLJS2RpR753JlvDW+b
xCEQ7ZWbt/H84y1aah0yDalL2LRjgoZ9hm3sDQsHyCibHaoAl+7PiCjeT4bID8PZ
r4mt/Suda0BCMeRlRZTYCLj8+wjomQqCQr+ySXzgEyVD1dNzacSiMzrzLEuiWI8Y
QMqPuXWXyxKI+AuYWypcwDeZwUp0l8LJzBYGQ0j/Y2n90AgTY9IT6CEEqxq1Yaww
Fyt2i7DRLFYGfzUIssx4MmrLcs3Tea+uhtb+H4iyj3x71wbp90/ZHsvvnxz1jRTV
Qe8cHMYCIqE5PO/lqVuwwk68O81/JAHluM7g12zBo7fTWlbkh7wQ9w==
-----END CERTIFICATE-----
